; Function Attrs: mustprogress nofree nounwind uwtable
define void @_ZN19OpenColorIO_v2_5dev16UnsetEnvVariableEPKc(ptr noundef readonly %0) local_unnamed_addr #4 {
  %.not.i = icmp eq ptr %0, null
  br i1 %.not.i, label %_ZN19OpenColorIO_v2_5dev8Platform8UnsetenvEPKc.exit, label %2

2:                                                ; preds = %1
  %3 = load i8, ptr %0, align 1, !tbaa !13
  %.not3.i = icmp eq i8 %3, 0
  br i1 %.not3.i, label %_ZN19OpenColorIO_v2_5dev8Platform8UnsetenvEPKc.exit, label %4

4:                                                ; preds = %2
  %5 = tail call i32 @unsetenv(ptr noundef nonnull readonly %0) #20
  br label %_ZN19OpenColorIO_v2_5dev8Platform8UnsetenvEPKc.exit

_ZN19OpenColorIO_v2_5dev8Platform8UnsetenvEPKc.exit: ; preds = %1, %2, %4
  ret void
}